target datalayout = "e-m:e-p270:32:32-p271:32:32-p272:64:64-i64:64-i128:128-f80:128-n8:16:32:64-S128"
target triple = "x86_64-pc-linux-gnu"

%"class.cv::Mat" = type { i32, i32, i32, i32, ptr, ptr, ptr, ptr, ptr, ptr, %"struct.cv::MatSize", %"struct.cv::MatStep" }
%"struct.cv::MatSize" = type { ptr }
%"struct.cv::MatStep" = type { ptr, [2 x i64] }

; Function Attrs: inlinehint mustprogress nounwind uwtable
define linkonce_odr hidden noundef nonnull align 1 dereferenceable(1) ptr @_ZN2cv3Mat2atIhEERT_ii(ptr noundef nonnull align 8 dereferenceable(96) %0, i32 noundef %1, i32 noundef %2) #5 comdat align 2 {
  %4 = alloca ptr, align 8
  %5 = alloca i32, align 4
  %6 = alloca i32, align 4
  store ptr %0, ptr %4, align 8, !tbaa !113
  store i32 %1, ptr %5, align 4, !tbaa !29
  store i32 %2, ptr %6, align 4, !tbaa !29
  %7 = load ptr, ptr %4, align 8
  %8 = getelementptr inbounds nuw %"class.cv::Mat", ptr %7, i32 0, i32 4
  %9 = load ptr, ptr %8, align 8, !tbaa !190
  %10 = getelementptr inbounds nuw %"class.cv::Mat", ptr %7, i32 0, i32 11
  %11 = getelementptr inbounds nuw %"struct.cv::MatStep", ptr %10, i32 0, i32 0
  %12 = load ptr, ptr %11, align 8, !tbaa !191
  %13 = getelementptr inbounds i64, ptr %12, i64 0
  %14 = load i64, ptr %13, align 8, !tbaa !82
  %15 = load i32, ptr %5, align 4, !tbaa !29
  %16 = sext i32 %15 to i64
  %17 = mul i64 %14, %16
  %18 = getelementptr inbounds nuw i8, ptr %9, i64 %17
  %19 = load i32, ptr %6, align 4, !tbaa !29
  %20 = sext i32 %19 to i64
  %21 = getelementptr inbounds i8, ptr %18, i64 %20
  ret ptr %21
}

; Function Attrs: inlinehint mustprogress nounwind uwtable
define linkonce_odr hidden noundef nonnull align 1 dereferenceable(1) ptr @_ZNK2cv3Mat2atIhEERKT_ii(ptr noundef nonnull align 8 dereferenceable(96) %0, i32 noundef %1, i32 noundef %2) #5 comdat align 2 {
  %4 = alloca ptr, align 8
  %5 = alloca i32, align 4
  %6 = alloca i32, align 4
  store ptr %0, ptr %4, align 8, !tbaa !113
  store i32 %1, ptr %5, align 4, !tbaa !29
  store i32 %2, ptr %6, align 4, !tbaa !29
  %7 = load ptr, ptr %4, align 8
  %8 = getelementptr inbounds nuw %"class.cv::Mat", ptr %7, i32 0, i32 4
  %9 = load ptr, ptr %8, align 8, !tbaa !190
  %10 = getelementptr inbounds nuw %"class.cv::Mat", ptr %7, i32 0, i32 11
  %11 = getelementptr inbounds nuw %"struct.cv::MatStep", ptr %10, i32 0, i32 0
  %12 = load ptr, ptr %11, align 8, !tbaa !191
  %13 = getelementptr inbounds i64, ptr %12, i64 0
  %14 = load i64, ptr %13, align 8, !tbaa !82
  %15 = load i32, ptr %5, align 4, !tbaa !29
  %16 = sext i32 %15 to i64
  %17 = mul i64 %14, %16
  %18 = getelementptr inbounds nuw i8, ptr %9, i64 %17
  %19 = load i32, ptr %6, align 4, !tbaa !29
  %20 = sext i32 %19 to i64
  %21 = getelementptr inbounds i8, ptr %18, i64 %20
  ret ptr %21
}

; Function Attrs: mustprogress uwtable
define internal void @_ZN2cvL8maskDataERKNS_3MatEiRS0_(ptr noundef nonnull align 8 dereferenceable(96) %0, i32 noundef %1, ptr noundef nonnull align 8 dereferenceable(96) %2) #2 {
  %4 = alloca ptr, align 8
  %5 = alloca i32, align 4
  %6 = alloca ptr, align 8
  %7 = alloca i32, align 4
  %8 = alloca i32, align 4
  %9 = alloca i32, align 4
  %10 = alloca i32, align 4
  store ptr %0, ptr %4, align 8, !tbaa !113
  store i32 %1, ptr %5, align 4, !tbaa !29
  store ptr %2, ptr %6, align 8, !tbaa !113
  call void @llvm.lifetime.start.p0(i64 4, ptr %7) #21
  %11 = load ptr, ptr %4, align 8, !tbaa !113
  %12 = getelementptr inbounds nuw %"class.cv::Mat", ptr %11, i32 0, i32 2
  %13 = load i32, ptr %12, align 8, !tbaa !173
  store i32 %13, ptr %7, align 4, !tbaa !29
  call void @llvm.lifetime.start.p0(i64 4, ptr %8) #21
  store i32 0, ptr %8, align 4, !tbaa !29
  br label %14

14:                                               ; preds = %140, %3
  %15 = load i32, ptr %8, align 4, !tbaa !29
  %16 = load i32, ptr %7, align 4, !tbaa !29
  %17 = icmp slt i32 %15, %16
  br i1 %17, label %19, label %18

18:                                               ; preds = %14
  store i32 2, ptr %9, align 4
  call void @llvm.lifetime.end.p0(i64 4, ptr %8) #21
  br label %143

19:                                               ; preds = %14
  call void @llvm.lifetime.start.p0(i64 4, ptr %10) #21
  store i32 0, ptr %10, align 4, !tbaa !29
  br label %20

20:                                               ; preds = %136, %19
  %21 = load i32, ptr %10, align 4, !tbaa !29
  %22 = load i32, ptr %7, align 4, !tbaa !29
  %23 = icmp slt i32 %21, %22
  br i1 %23, label %25, label %24

24:                                               ; preds = %20
  store i32 5, ptr %9, align 4
  call void @llvm.lifetime.end.p0(i64 4, ptr %10) #21
  br label %139

25:                                               ; preds = %20
  %26 = load ptr, ptr %4, align 8, !tbaa !113
  %27 = load i32, ptr %8, align 4, !tbaa !29
  %28 = load i32, ptr %10, align 4, !tbaa !29
  %29 = call noundef nonnull align 1 dereferenceable(1) ptr @_ZNK2cv3Mat2atIhEERKT_ii(ptr noundef nonnull align 8 dereferenceable(96) %26, i32 noundef %27, i32 noundef %28)
  %30 = load i8, ptr %29, align 1, !tbaa !83
  %31 = zext i8 %30 to i32
  %32 = icmp eq i32 %31, 110
  br i1 %32, label %33, label %34

33:                                               ; preds = %25
  br label %136

34:                                               ; preds = %25
  %35 = load i32, ptr %5, align 4, !tbaa !29
  %36 = icmp eq i32 %35, 0
  br i1 %36, label %37, label %43

37:                                               ; preds = %34
  %38 = load i32, ptr %8, align 4, !tbaa !29
  %39 = load i32, ptr %10, align 4, !tbaa !29
  %40 = add nsw i32 %38, %39
  %41 = srem i32 %40, 2
  %42 = icmp ne i32 %41, 0
  br i1 %42, label %43, label %121

43:                                               ; preds = %37, %34
  %44 = load i32, ptr %5, align 4, !tbaa !29
  %45 = icmp eq i32 %44, 1
  br i1 %45, label %46, label %50

46:                                               ; preds = %43
  %47 = load i32, ptr %8, align 4, !tbaa !29
  %48 = srem i32 %47, 2
  %49 = icmp ne i32 %48, 0
  br i1 %49, label %50, label %121

50:                                               ; preds = %46, %43
  %51 = load i32, ptr %5, align 4, !tbaa !29
  %52 = icmp eq i32 %51, 2
  br i1 %52, label %53, label %57

53:                                               ; preds = %50
  %54 = load i32, ptr %10, align 4, !tbaa !29
  %55 = srem i32 %54, 3
  %56 = icmp ne i32 %55, 0
  br i1 %56, label %57, label %121

57:                                               ; preds = %53, %50
  %58 = load i32, ptr %5, align 4, !tbaa !29
  %59 = icmp eq i32 %58, 3
  br i1 %59, label %60, label %66

60:                                               ; preds = %57
  %61 = load i32, ptr %8, align 4, !tbaa !29
  %62 = load i32, ptr %10, align 4, !tbaa !29
  %63 = add nsw i32 %61, %62
  %64 = srem i32 %63, 3
  %65 = icmp ne i32 %64, 0
  br i1 %65, label %66, label %121

66:                                               ; preds = %60, %57
  %67 = load i32, ptr %5, align 4, !tbaa !29
  %68 = icmp eq i32 %67, 4
  br i1 %68, label %69, label %77

69:                                               ; preds = %66
  %70 = load i32, ptr %8, align 4, !tbaa !29
  %71 = sdiv i32 %70, 2
  %72 = load i32, ptr %10, align 4, !tbaa !29
  %73 = sdiv i32 %72, 3
  %74 = add nsw i32 %71, %73
  %75 = srem i32 %74, 2
  %76 = icmp ne i32 %75, 0
  br i1 %76, label %77, label %121

77:                                               ; preds = %69, %66
  %78 = load i32, ptr %5, align 4, !tbaa !29
  %79 = icmp eq i32 %78, 5
  br i1 %79, label %80, label %91

80:                                               ; preds = %77
  %81 = load i32, ptr %8, align 4, !tbaa !29
  %82 = load i32, ptr %10, align 4, !tbaa !29
  %83 = mul nsw i32 %81, %82
  %84 = srem i32 %83, 2
  %85 = load i32, ptr %8, align 4, !tbaa !29
  %86 = load i32, ptr %10, align 4, !tbaa !29
  %87 = mul nsw i32 %85, %86
  %88 = srem i32 %87, 3
  %89 = add nsw i32 %84, %88
  %90 = icmp ne i32 %89, 0
  br i1 %90, label %91, label %121

91:                                               ; preds = %80, %77
  %92 = load i32, ptr %5, align 4, !tbaa !29
  %93 = icmp eq i32 %92, 6
  br i1 %93, label %94, label %106

94:                                               ; preds = %91
  %95 = load i32, ptr %8, align 4, !tbaa !29
  %96 = load i32, ptr %10, align 4, !tbaa !29
  %97 = mul nsw i32 %95, %96
  %98 = srem i32 %97, 2
  %99 = load i32, ptr %8, align 4, !tbaa !29
  %100 = load i32, ptr %10, align 4, !tbaa !29
  %101 = mul nsw i32 %99, %100
  %102 = srem i32 %101, 3
  %103 = add nsw i32 %98, %102
  %104 = srem i32 %103, 2
  %105 = icmp ne i32 %104, 0
  br i1 %105, label %106, label %121

106:                                              ; preds = %94, %91
  %107 = load i32, ptr %5, align 4, !tbaa !29
  %108 = icmp eq i32 %107, 7
  br i1 %108, label %109, label %134

109:                                              ; preds = %106
  %110 = load i32, ptr %8, align 4, !tbaa !29
  %111 = load i32, ptr %10, align 4, !tbaa !29
  %112 = mul nsw i32 %110, %111
  %113 = srem i32 %112, 3
  %114 = load i32, ptr %8, align 4, !tbaa !29
  %115 = load i32, ptr %10, align 4, !tbaa !29
  %116 = add nsw i32 %114, %115
  %117 = srem i32 %116, 2
  %118 = add nsw i32 %113, %117
  %119 = srem i32 %118, 2
  %120 = icmp ne i32 %119, 0
  br i1 %120, label %134, label %121

121:                                              ; preds = %109, %94, %80, %69, %60, %53, %46, %37
  %122 = load ptr, ptr %4, align 8, !tbaa !113
  %123 = load i32, ptr %8, align 4, !tbaa !29
  %124 = load i32, ptr %10, align 4, !tbaa !29
  %125 = call noundef nonnull align 1 dereferenceable(1) ptr @_ZNK2cv3Mat2atIhEERKT_ii(ptr noundef nonnull align 8 dereferenceable(96) %122, i32 noundef %123, i32 noundef %124)
  %126 = load i8, ptr %125, align 1, !tbaa !83
  %127 = zext i8 %126 to i32
  %128 = xor i32 %127, 255
  %129 = trunc i32 %128 to i8
  %130 = load ptr, ptr %6, align 8, !tbaa !113
  %131 = load i32, ptr %8, align 4, !tbaa !29
  %132 = load i32, ptr %10, align 4, !tbaa !29
  %133 = call noundef nonnull align 1 dereferenceable(1) ptr @_ZN2cv3Mat2atIhEERT_ii(ptr noundef nonnull align 8 dereferenceable(96) %130, i32 noundef %131, i32 noundef %132)
  store i8 %129, ptr %133, align 1, !tbaa !83
  br label %134

134:                                              ; preds = %121, %109, %106
  br label %135

135:                                              ; preds = %134
  br label %136

136:                                              ; preds = %135, %33
  %137 = load i32, ptr %10, align 4, !tbaa !29
  %138 = add nsw i32 %137, 1
  store i32 %138, ptr %10, align 4, !tbaa !29
  br label %20, !llvm.loop !174

139:                                              ; preds = %24
  br label %140

140:                                              ; preds = %139
  %141 = load i32, ptr %8, align 4, !tbaa !29
  %142 = add nsw i32 %141, 1
  store i32 %142, ptr %8, align 4, !tbaa !29
  br label %14, !llvm.loop !175

143:                                              ; preds = %18
  call void @llvm.lifetime.end.p0(i64 4, ptr %7) #21
  ret void
}