; Function Attrs: mustprogress nofree norecurse nosync nounwind memory(readwrite, inaccessiblemem: none) uwtable
define internal fastcc void @_ZN2cvL8maskDataERKNS_3MatEiRS0_(ptr noundef nonnull readonly align 8 captures(none) dereferenceable(96) %0, i32 noundef %1, ptr noundef nonnull readonly align 8 captures(none) dereferenceable(96) %2) unnamed_addr #11 {
  %4 = getelementptr inbounds nuw i8, ptr %0, i64 8
  %5 = load i32, ptr %4, align 8, !tbaa !165
  %6 = icmp sgt i32 %5, 0
  br i1 %6, label %.preheader.lr.ph, label %._crit_edge57

.preheader.lr.ph:                                 ; preds = %3
  %7 = getelementptr inbounds nuw i8, ptr %0, i64 16
  %8 = getelementptr inbounds nuw i8, ptr %0, i64 72
  %9 = getelementptr inbounds nuw i8, ptr %2, i64 16
  %10 = getelementptr inbounds nuw i8, ptr %2, i64 72
  %wide.trip.count62 = zext nneg i32 %5 to i64
  br label %.preheader.us

.preheader.us:                                    ; preds = %._crit_edge.us, %.preheader.lr.ph
  %indvars.iv59 = phi i64 [ %indvars.iv.next60, %._crit_edge.us ], [ 0, %.preheader.lr.ph ]
  %11 = trunc nuw nsw i64 %indvars.iv59 to i32
  %12 = lshr i32 %11, 1
  %.old.us = and i32 %11, 1
  %.not45.old.us = icmp eq i32 %.old.us, 0
  br label %13

13:                                               ; preds = %.preheader.us, %.thread.us
  %indvars.iv = phi i64 [ 0, %.preheader.us ], [ %indvars.iv.next, %.thread.us ]
  %14 = load ptr, ptr %7, align 8, !tbaa !166
  %15 = load ptr, ptr %8, align 8, !tbaa !167
  %16 = load i64, ptr %15, align 8, !tbaa !72
  %17 = mul i64 %16, %indvars.iv59
  %18 = getelementptr inbounds nuw i8, ptr %14, i64 %17
  %19 = getelementptr inbounds nuw i8, ptr %18, i64 %indvars.iv
  %20 = load i8, ptr %19, align 1, !tbaa !57
  %21 = icmp eq i8 %20, 110
  br i1 %21, label %.thread.us, label %22

22:                                               ; preds = %13
  switch i32 %1, label %.thread.us [
    i32 0, label %55
    i32 1, label %54
    i32 2, label %52
    i32 3, label %48
    i32 4, label %43
    i32 5, label %37
    i32 6, label %31
    i32 7, label %23
  ]

23:                                               ; preds = %22
  %24 = mul nuw nsw i64 %indvars.iv, %indvars.iv59
  %25 = trunc nuw i64 %24 to i32
  %26 = urem i32 %25, 3
  %27 = add nuw nsw i64 %indvars.iv, %indvars.iv59
  %28 = trunc nuw i64 %27 to i32
  %29 = add nuw i32 %26, %28
  %30 = and i32 %29, 1
  %.not51.us = icmp eq i32 %30, 0
  br i1 %.not51.us, label %58, label %.thread.us

31:                                               ; preds = %22
  %32 = mul nuw nsw i64 %indvars.iv, %indvars.iv59
  %33 = trunc nuw i64 %32 to i32
  %34 = urem i32 %33, 3
  %35 = add nuw i32 %34, %33
  %36 = and i32 %35, 1
  %.not50.us = icmp eq i32 %36, 0
  br i1 %.not50.us, label %58, label %.thread.us

37:                                               ; preds = %22
  %38 = mul nuw nsw i64 %indvars.iv, %indvars.iv59
  %39 = trunc nuw i64 %38 to i32
  %40 = and i32 %39, 1
  %41 = urem i32 %39, 3
  %42 = or i32 %40, %41
  %.not49.us = icmp eq i32 %42, 0
  br i1 %.not49.us, label %58, label %.thread.us

43:                                               ; preds = %22
  %44 = trunc nuw nsw i64 %indvars.iv to i32
  %45 = udiv i32 %44, 3
  %46 = add nuw nsw i32 %45, %12
  %47 = and i32 %46, 1
  %.not48.us = icmp eq i32 %47, 0
  br i1 %.not48.us, label %58, label %.thread.us

48:                                               ; preds = %22
  %49 = add nuw nsw i64 %indvars.iv, %indvars.iv59
  %50 = trunc nuw i64 %49 to i32
  %51 = urem i32 %50, 3
  %.not47.us = icmp eq i32 %51, 0
  br i1 %.not47.us, label %58, label %.thread.us

52:                                               ; preds = %22
  %53 = trunc nuw nsw i64 %indvars.iv to i32
  %.old52.us = urem i32 %53, 3
  %.not46.old.us = icmp eq i32 %.old52.us, 0
  br i1 %.not46.old.us, label %58, label %.thread.us

54:                                               ; preds = %22
  br i1 %.not45.old.us, label %58, label %.thread.us

55:                                               ; preds = %22
  %56 = add nuw nsw i64 %indvars.iv, %indvars.iv59
  %57 = and i64 %56, 1
  %.not.us = icmp eq i64 %57, 0
  br i1 %.not.us, label %58, label %.thread.us

58:                                               ; preds = %55, %54, %52, %48, %43, %37, %31, %23
  %59 = xor i8 %20, -1
  %60 = load ptr, ptr %9, align 8, !tbaa !166
  %61 = load ptr, ptr %10, align 8, !tbaa !167
  %62 = load i64, ptr %61, align 8, !tbaa !72
  %63 = mul i64 %62, %indvars.iv59
  %64 = getelementptr inbounds nuw i8, ptr %60, i64 %63
  %65 = getelementptr inbounds nuw i8, ptr %64, i64 %indvars.iv
  store i8 %59, ptr %65, align 1, !tbaa !57
  br label %.thread.us

.thread.us:                                       ; preds = %58, %55, %54, %52, %48, %43, %37, %31, %23, %22, %13
  %indvars.iv.next = add nuw nsw i64 %indvars.iv, 1
  %exitcond.not = icmp eq i64 %indvars.iv.next, %wide.trip.count62
  br i1 %exitcond.not, label %._crit_edge.us, label %13, !llvm.loop !168

._crit_edge.us:                                   ; preds = %.thread.us
  %indvars.iv.next60 = add nuw nsw i64 %indvars.iv59, 1
  %exitcond63.not = icmp eq i64 %indvars.iv.next60, %wide.trip.count62
  br i1 %exitcond63.not, label %._crit_edge57, label %.preheader.us, !llvm.loop !169

._crit_edge57:                                    ; preds = %._crit_edge.us, %3
  ret void
}